; Function Attrs: mustprogress uwtable
define hidden void @_ZN4cvc58internal13preprocessing6passes22PseudoBooleanProcessor6addSubENS0_12NodeTemplateILb1EEES5_(ptr noundef nonnull align 8 dereferenceable(624) %0, ptr noundef readonly captures(none) %1, ptr noundef readonly captures(none) %2) local_unnamed_addr #3 align 2 personality ptr @__gxx_personality_v0 {
  %4 = alloca %"class.cvc5::internal::NodeTemplate.105", align 8
  %5 = alloca %"class.cvc5::internal::NodeTemplate", align 8
  %6 = alloca %"class.cvc5::internal::NodeTemplate.105", align 8
  %7 = alloca %"class.cvc5::internal::NodeTemplate.105", align 8
  %8 = alloca %"class.cvc5::internal::NodeTemplate.105", align 8
  %9 = getelementptr inbounds nuw i8, ptr %0, i64 176
  %10 = load ptr, ptr %1, align 8, !tbaa !65
  store ptr %10, ptr %4, align 8, !tbaa !82
  %11 = call noundef zeroext i1 @_ZNK4cvc58internal6theory15SubstitutionMap15hasSubstitutionENS0_12NodeTemplateILb0EEE(ptr noundef nonnull align 8 dereferenceable(256) %9, ptr noundef nonnull %4)
  br i1 %11, label %32, label %12

12:                                               ; preds = %3
  call void @llvm.lifetime.start.p0(i64 8, ptr nonnull %5) #25
  %13 = load ptr, ptr %2, align 8, !tbaa !65
  store ptr %13, ptr %6, align 8, !tbaa !82
  call void @_ZNK4cvc58internal6EnvObj7rewriteENS0_12NodeTemplateILb0EEE(ptr dead_on_unwind nonnull writable sret(%"class.cvc5::internal::NodeTemplate") align 8 %5, ptr noundef nonnull align 8 dereferenceable(16) %0, ptr noundef nonnull %6)
  %14 = load ptr, ptr %1, align 8, !tbaa !65
  store ptr %14, ptr %7, align 8, !tbaa !82
  %15 = load ptr, ptr %5, align 8, !tbaa !65
  store ptr %15, ptr %8, align 8, !tbaa !82
  invoke void @_ZN4cvc58internal6theory15SubstitutionMap15addSubstitutionENS0_12NodeTemplateILb0EEES4_b(ptr noundef nonnull align 8 dereferenceable(256) %9, ptr noundef nonnull %7, ptr noundef nonnull %8, i1 noundef zeroext true)
          to label %16 unwind label %30

16:                                               ; preds = %12
  %17 = load ptr, ptr %5, align 8, !tbaa !65
  %18 = load i64, ptr %17, align 8
  %19 = and i64 %18, 1152920405095219200
  %.not.i.i = icmp eq i64 %19, 1152920405095219200
  br i1 %.not.i.i, label %_ZN4cvc58internal12NodeTemplateILb1EED2Ev.exit, label %20, !prof !69

20:                                               ; preds = %16
  %21 = add i64 %18, 1152920405095219200
  %22 = and i64 %21, 1152920405095219200
  %23 = and i64 %18, -1152920405095219201
  %24 = or disjoint i64 %22, %23
  store i64 %24, ptr %17, align 8
  %25 = icmp eq i64 %22, 0
  br i1 %25, label %26, label %_ZN4cvc58internal12NodeTemplateILb1EED2Ev.exit, !prof !69

26:                                               ; preds = %20
  invoke void @_ZN4cvc58internal4expr9NodeValue15markForDeletionEv(ptr noundef nonnull align 8 dereferenceable(24) %17)
          to label %_ZN4cvc58internal12NodeTemplateILb1EED2Ev.exit unwind label %27

27:                                               ; preds = %26
  %28 = landingpad { ptr, i32 }
          catch ptr null
  %29 = extractvalue { ptr, i32 } %28, 0
  call void @__clang_call_terminate(ptr %29) #27
  unreachable

_ZN4cvc58internal12NodeTemplateILb1EED2Ev.exit:   ; preds = %16, %20, %26
  call void @llvm.lifetime.end.p0(i64 8, ptr nonnull %5) #25
  br label %32

30:                                               ; preds = %12
  %31 = landingpad { ptr, i32 }
          cleanup
  call void @_ZN4cvc58internal12NodeTemplateILb1EED2Ev(ptr noundef nonnull align 8 dereferenceable(8) %5) #25
  call void @llvm.lifetime.end.p0(i64 8, ptr nonnull %5) #25
  resume { ptr, i32 } %31

32:                                               ; preds = %_ZN4cvc58internal12NodeTemplateILb1EED2Ev.exit, %3
  ret void
}